target datalayout = "e-m:e-p270:32:32-p271:32:32-p272:64:64-i64:64-i128:128-f80:128-n8:16:32:64-S128"
target triple = "x86_64-pc-linux-gnu"

%struct.PLpgSQL_execstate = type { ptr, ptr, ptr, i64, i8, i32, i32, i8, i8, i8, i8, ptr, ptr, ptr, ptr, ptr, ptr, ptr, i32, i32, ptr, ptr, ptr, ptr, ptr, ptr, ptr, ptr, ptr, ptr, i64, ptr, ptr, ptr, ptr, ptr }
%struct.PLpgSQL_function = type { ptr, i32, i32, %struct.ItemPointerData, i32, i32, ptr, ptr, i32, i32, i8, i8, i8, i8, i8, i8, i32, [100 x i32], i32, i32, i32, i32, i32, i8, i32, i32, i32, ptr, i64, ptr, i32, i8, i8, ptr, i64 }
%struct.ItemPointerData = type { %struct.BlockIdData, i16 }
%struct.BlockIdData = type { i16, i16 }
%struct.PLpgSQL_plugin = type { ptr, ptr, ptr, ptr, ptr, ptr, ptr, ptr, ptr, ptr }
%struct.ReturnSetInfo = type { i32, ptr, ptr, i32, i32, i32, ptr, ptr }
%struct.HASHCTL = type { i64, i64, i64, i64, i64, i64, ptr, ptr, ptr, ptr, ptr, ptr }
%struct.ExprContext = type { i32, ptr, ptr, ptr, ptr, ptr, ptr, ptr, ptr, ptr, i64, i8, i64, i8, ptr, ptr, ptr, ptr }
%struct.ParamListInfoData = type { ptr, ptr, ptr, ptr, ptr, ptr, ptr, i32, [0 x %struct.ParamExternData] }
%struct.ParamExternData = type { i64, i8, i16, i32 }

@plpgsql_plugin_ptr = external global ptr, align 8
@shared_simple_eval_estate = internal global ptr null, align 8
@shared_simple_eval_resowner = internal global ptr null, align 8
@CurrentMemoryContext = external global ptr, align 8
@CurrentResourceOwner = external global ptr, align 8
@cast_expr_hash = internal global ptr null, align 8
@.str.134 = private unnamed_addr constant [25 x i8] c"PLpgSQL cast expressions\00", align 1
@.str.135 = private unnamed_addr constant [27 x i8] c"PLpgSQL private cast cache\00", align 1
@shared_cast_hash = internal global ptr null, align 8
@.str.136 = private unnamed_addr constant [19 x i8] c"PLpgSQL cast cache\00", align 1

; Function Attrs: nounwind uwtable
define internal void @plpgsql_estate_setup(ptr noundef %0, ptr noundef %1, ptr noundef %2, ptr noundef %3, ptr noundef %4) #0 {
  %6 = alloca ptr, align 8
  %7 = alloca ptr, align 8
  %8 = alloca ptr, align 8
  %9 = alloca ptr, align 8
  %10 = alloca ptr, align 8
  %11 = alloca %struct.HASHCTL, align 8
  store ptr %0, ptr %6, align 8
  store ptr %1, ptr %7, align 8
  store ptr %2, ptr %8, align 8
  store ptr %3, ptr %9, align 8
  store ptr %4, ptr %10, align 8
  call void @llvm.lifetime.start.p0(i64 96, ptr %11) #12
  %12 = load ptr, ptr %6, align 8
  %13 = load ptr, ptr %7, align 8
  %14 = getelementptr inbounds nuw %struct.PLpgSQL_function, ptr %13, i32 0, i32 33
  store ptr %12, ptr %14, align 8
  %15 = load ptr, ptr %7, align 8
  %16 = load ptr, ptr %6, align 8
  %17 = getelementptr inbounds nuw %struct.PLpgSQL_execstate, ptr %16, i32 0, i32 0
  store ptr %15, ptr %17, align 8
  %18 = load ptr, ptr %6, align 8
  %19 = getelementptr inbounds nuw %struct.PLpgSQL_execstate, ptr %18, i32 0, i32 1
  store ptr null, ptr %19, align 8
  %20 = load ptr, ptr %6, align 8
  %21 = getelementptr inbounds nuw %struct.PLpgSQL_execstate, ptr %20, i32 0, i32 2
  store ptr null, ptr %21, align 8
  %22 = load ptr, ptr %6, align 8
  %23 = getelementptr inbounds nuw %struct.PLpgSQL_execstate, ptr %22, i32 0, i32 3
  store i64 0, ptr %23, align 8
  %24 = load ptr, ptr %6, align 8
  %25 = getelementptr inbounds nuw %struct.PLpgSQL_execstate, ptr %24, i32 0, i32 4
  store i8 1, ptr %25, align 8
  %26 = load ptr, ptr %6, align 8
  %27 = getelementptr inbounds nuw %struct.PLpgSQL_execstate, ptr %26, i32 0, i32 5
  store i32 0, ptr %27, align 4
  %28 = load ptr, ptr %7, align 8
  %29 = getelementptr inbounds nuw %struct.PLpgSQL_function, ptr %28, i32 0, i32 8
  %30 = load i32, ptr %29, align 8
  %31 = load ptr, ptr %6, align 8
  %32 = getelementptr inbounds nuw %struct.PLpgSQL_execstate, ptr %31, i32 0, i32 6
  store i32 %30, ptr %32, align 8
  %33 = load ptr, ptr %7, align 8
  %34 = getelementptr inbounds nuw %struct.PLpgSQL_function, ptr %33, i32 0, i32 11
  %35 = load i8, ptr %34, align 1, !range !3, !noundef !4
  %36 = trunc i8 %35 to i1
  %37 = load ptr, ptr %6, align 8
  %38 = getelementptr inbounds nuw %struct.PLpgSQL_execstate, ptr %37, i32 0, i32 7
  %39 = zext i1 %36 to i8
  store i8 %39, ptr %38, align 4
  %40 = load ptr, ptr %7, align 8
  %41 = getelementptr inbounds nuw %struct.PLpgSQL_function, ptr %40, i32 0, i32 13
  %42 = load i8, ptr %41, align 1, !range !3, !noundef !4
  %43 = trunc i8 %42 to i1
  %44 = load ptr, ptr %6, align 8
  %45 = getelementptr inbounds nuw %struct.PLpgSQL_execstate, ptr %44, i32 0, i32 8
  %46 = zext i1 %43 to i8
  store i8 %46, ptr %45, align 1
  %47 = load ptr, ptr %7, align 8
  %48 = getelementptr inbounds nuw %struct.PLpgSQL_function, ptr %47, i32 0, i32 14
  %49 = load i8, ptr %48, align 4, !range !3, !noundef !4
  %50 = trunc i8 %49 to i1
  %51 = load ptr, ptr %6, align 8
  %52 = getelementptr inbounds nuw %struct.PLpgSQL_execstate, ptr %51, i32 0, i32 9
  %53 = zext i1 %50 to i8
  store i8 %53, ptr %52, align 2
  %54 = load ptr, ptr %6, align 8
  %55 = getelementptr inbounds nuw %struct.PLpgSQL_execstate, ptr %54, i32 0, i32 10
  store i8 1, ptr %55, align 1
  %56 = load ptr, ptr %6, align 8
  %57 = getelementptr inbounds nuw %struct.PLpgSQL_execstate, ptr %56, i32 0, i32 11
  store ptr null, ptr %57, align 8
  %58 = load ptr, ptr %6, align 8
  %59 = getelementptr inbounds nuw %struct.PLpgSQL_execstate, ptr %58, i32 0, i32 12
  store ptr null, ptr %59, align 8
  %60 = load ptr, ptr %6, align 8
  %61 = getelementptr inbounds nuw %struct.PLpgSQL_execstate, ptr %60, i32 0, i32 13
  store ptr null, ptr %61, align 8
  %62 = load ptr, ptr %6, align 8
  %63 = getelementptr inbounds nuw %struct.PLpgSQL_execstate, ptr %62, i32 0, i32 14
  store ptr null, ptr %63, align 8
  %64 = load ptr, ptr %8, align 8
  %65 = icmp ne ptr %64, null
  br i1 %65, label %66, label %77

66:                                               ; preds = %5
  %67 = load ptr, ptr %8, align 8
  %68 = getelementptr inbounds nuw %struct.ReturnSetInfo, ptr %67, i32 0, i32 1
  %69 = load ptr, ptr %68, align 8
  %70 = getelementptr inbounds nuw %struct.ExprContext, ptr %69, i32 0, i32 4
  %71 = load ptr, ptr %70, align 8
  %72 = load ptr, ptr %6, align 8
  %73 = getelementptr inbounds nuw %struct.PLpgSQL_execstate, ptr %72, i32 0, i32 15
  store ptr %71, ptr %73, align 8
  %74 = load ptr, ptr @CurrentResourceOwner, align 8
  %75 = load ptr, ptr %6, align 8
  %76 = getelementptr inbounds nuw %struct.PLpgSQL_execstate, ptr %75, i32 0, i32 16
  store ptr %74, ptr %76, align 8
  br label %82

77:                                               ; preds = %5
  %78 = load ptr, ptr %6, align 8
  %79 = getelementptr inbounds nuw %struct.PLpgSQL_execstate, ptr %78, i32 0, i32 15
  store ptr null, ptr %79, align 8
  %80 = load ptr, ptr %6, align 8
  %81 = getelementptr inbounds nuw %struct.PLpgSQL_execstate, ptr %80, i32 0, i32 16
  store ptr null, ptr %81, align 8
  br label %82

82:                                               ; preds = %77, %66
  %83 = load ptr, ptr %8, align 8
  %84 = load ptr, ptr %6, align 8
  %85 = getelementptr inbounds nuw %struct.PLpgSQL_execstate, ptr %84, i32 0, i32 17
  store ptr %83, ptr %85, align 8
  %86 = load ptr, ptr %7, align 8
  %87 = getelementptr inbounds nuw %struct.PLpgSQL_function, ptr %86, i32 0, i32 19
  %88 = load i32, ptr %87, align 8
  %89 = load ptr, ptr %6, align 8
  %90 = getelementptr inbounds nuw %struct.PLpgSQL_execstate, ptr %89, i32 0, i32 18
  store i32 %88, ptr %90, align 8
  %91 = load ptr, ptr %7, align 8
  %92 = getelementptr inbounds nuw %struct.PLpgSQL_function, ptr %91, i32 0, i32 26
  %93 = load i32, ptr %92, align 4
  %94 = load ptr, ptr %6, align 8
  %95 = getelementptr inbounds nuw %struct.PLpgSQL_execstate, ptr %94, i32 0, i32 19
  store i32 %93, ptr %95, align 4
  %96 = load ptr, ptr %6, align 8
  %97 = getelementptr inbounds nuw %struct.PLpgSQL_execstate, ptr %96, i32 0, i32 20
  store ptr null, ptr %97, align 8
  %98 = load ptr, ptr @CurrentMemoryContext, align 8
  %99 = load ptr, ptr %6, align 8
  %100 = getelementptr inbounds nuw %struct.PLpgSQL_execstate, ptr %99, i32 0, i32 21
  store ptr %98, ptr %100, align 8
  %101 = call ptr @makeParamList(i32 noundef 0)
  %102 = load ptr, ptr %6, align 8
  %103 = getelementptr inbounds nuw %struct.PLpgSQL_execstate, ptr %102, i32 0, i32 22
  store ptr %101, ptr %103, align 8
  %104 = load ptr, ptr %6, align 8
  %105 = getelementptr inbounds nuw %struct.PLpgSQL_execstate, ptr %104, i32 0, i32 22
  %106 = load ptr, ptr %105, align 8
  %107 = getelementptr inbounds nuw %struct.ParamListInfoData, ptr %106, i32 0, i32 0
  store ptr @plpgsql_param_fetch, ptr %107, align 8
  %108 = load ptr, ptr %6, align 8
  %109 = load ptr, ptr %6, align 8
  %110 = getelementptr inbounds nuw %struct.PLpgSQL_execstate, ptr %109, i32 0, i32 22
  %111 = load ptr, ptr %110, align 8
  %112 = getelementptr inbounds nuw %struct.ParamListInfoData, ptr %111, i32 0, i32 1
  store ptr %108, ptr %112, align 8
  %113 = load ptr, ptr %6, align 8
  %114 = getelementptr inbounds nuw %struct.PLpgSQL_execstate, ptr %113, i32 0, i32 22
  %115 = load ptr, ptr %114, align 8
  %116 = getelementptr inbounds nuw %struct.ParamListInfoData, ptr %115, i32 0, i32 2
  store ptr @plpgsql_param_compile, ptr %116, align 8
  %117 = load ptr, ptr %6, align 8
  %118 = getelementptr inbounds nuw %struct.PLpgSQL_execstate, ptr %117, i32 0, i32 22
  %119 = load ptr, ptr %118, align 8
  %120 = getelementptr inbounds nuw %struct.ParamListInfoData, ptr %119, i32 0, i32 3
  store ptr null, ptr %120, align 8
  %121 = load ptr, ptr %6, align 8
  %122 = getelementptr inbounds nuw %struct.PLpgSQL_execstate, ptr %121, i32 0, i32 22
  %123 = load ptr, ptr %122, align 8
  %124 = getelementptr inbounds nuw %struct.ParamListInfoData, ptr %123, i32 0, i32 4
  store ptr @plpgsql_parser_setup, ptr %124, align 8
  %125 = load ptr, ptr %6, align 8
  %126 = getelementptr inbounds nuw %struct.PLpgSQL_execstate, ptr %125, i32 0, i32 22
  %127 = load ptr, ptr %126, align 8
  %128 = getelementptr inbounds nuw %struct.ParamListInfoData, ptr %127, i32 0, i32 5
  store ptr null, ptr %128, align 8
  %129 = load ptr, ptr %6, align 8
  %130 = getelementptr inbounds nuw %struct.PLpgSQL_execstate, ptr %129, i32 0, i32 19
  %131 = load i32, ptr %130, align 4
  %132 = load ptr, ptr %6, align 8
  %133 = getelementptr inbounds nuw %struct.PLpgSQL_execstate, ptr %132, i32 0, i32 22
  %134 = load ptr, ptr %133, align 8
  %135 = getelementptr inbounds nuw %struct.ParamListInfoData, ptr %134, i32 0, i32 7
  store i32 %131, ptr %135, align 8
  %136 = load ptr, ptr @cast_expr_hash, align 8
  %137 = icmp eq ptr %136, null
  br i1 %137, label %138, label %142

138:                                              ; preds = %82
  %139 = getelementptr inbounds nuw %struct.HASHCTL, ptr %11, i32 0, i32 4
  store i64 16, ptr %139, align 8
  %140 = getelementptr inbounds nuw %struct.HASHCTL, ptr %11, i32 0, i32 5
  store i64 32, ptr %140, align 8
  %141 = call ptr @hash_create(ptr noundef @.str.134, i64 noundef 16, ptr noundef %11, i32 noundef 40)
  store ptr %141, ptr @cast_expr_hash, align 8
  br label %142

142:                                              ; preds = %138, %82
  %143 = load ptr, ptr %9, align 8
  %144 = icmp ne ptr %143, null
  br i1 %144, label %145, label %156

145:                                              ; preds = %142
  %146 = load ptr, ptr %9, align 8
  %147 = load ptr, ptr %6, align 8
  %148 = getelementptr inbounds nuw %struct.PLpgSQL_execstate, ptr %147, i32 0, i32 23
  store ptr %146, ptr %148, align 8
  %149 = getelementptr inbounds nuw %struct.HASHCTL, ptr %11, i32 0, i32 4
  store i64 16, ptr %149, align 8
  %150 = getelementptr inbounds nuw %struct.HASHCTL, ptr %11, i32 0, i32 5
  store i64 40, ptr %150, align 8
  %151 = load ptr, ptr @CurrentMemoryContext, align 8
  %152 = getelementptr inbounds nuw %struct.HASHCTL, ptr %11, i32 0, i32 10
  store ptr %151, ptr %152, align 8
  %153 = call ptr @hash_create(ptr noundef @.str.135, i64 noundef 16, ptr noundef %11, i32 noundef 1064)
  %154 = load ptr, ptr %6, align 8
  %155 = getelementptr inbounds nuw %struct.PLpgSQL_execstate, ptr %154, i32 0, i32 26
  store ptr %153, ptr %155, align 8
  br label %170

156:                                              ; preds = %142
  %157 = load ptr, ptr @shared_simple_eval_estate, align 8
  %158 = load ptr, ptr %6, align 8
  %159 = getelementptr inbounds nuw %struct.PLpgSQL_execstate, ptr %158, i32 0, i32 23
  store ptr %157, ptr %159, align 8
  %160 = load ptr, ptr @shared_cast_hash, align 8
  %161 = icmp eq ptr %160, null
  br i1 %161, label %162, label %166

162:                                              ; preds = %156
  %163 = getelementptr inbounds nuw %struct.HASHCTL, ptr %11, i32 0, i32 4
  store i64 16, ptr %163, align 8
  %164 = getelementptr inbounds nuw %struct.HASHCTL, ptr %11, i32 0, i32 5
  store i64 40, ptr %164, align 8
  %165 = call ptr @hash_create(ptr noundef @.str.136, i64 noundef 16, ptr noundef %11, i32 noundef 40)
  store ptr %165, ptr @shared_cast_hash, align 8
  br label %166

166:                                              ; preds = %162, %156
  %167 = load ptr, ptr @shared_cast_hash, align 8
  %168 = load ptr, ptr %6, align 8
  %169 = getelementptr inbounds nuw %struct.PLpgSQL_execstate, ptr %168, i32 0, i32 26
  store ptr %167, ptr %169, align 8
  br label %170

170:                                              ; preds = %166, %145
  %171 = load ptr, ptr %10, align 8
  %172 = icmp ne ptr %171, null
  br i1 %172, label %173, label %177

173:                                              ; preds = %170
  %174 = load ptr, ptr %10, align 8
  %175 = load ptr, ptr %6, align 8
  %176 = getelementptr inbounds nuw %struct.PLpgSQL_execstate, ptr %175, i32 0, i32 24
  store ptr %174, ptr %176, align 8
  br label %181

177:                                              ; preds = %170
  %178 = load ptr, ptr @shared_simple_eval_resowner, align 8
  %179 = load ptr, ptr %6, align 8
  %180 = getelementptr inbounds nuw %struct.PLpgSQL_execstate, ptr %179, i32 0, i32 24
  store ptr %178, ptr %180, align 8
  br label %181

181:                                              ; preds = %177, %173
  %182 = load ptr, ptr %6, align 8
  %183 = getelementptr inbounds nuw %struct.PLpgSQL_execstate, ptr %182, i32 0, i32 25
  store ptr null, ptr %183, align 8
  %184 = load ptr, ptr %6, align 8
  %185 = getelementptr inbounds nuw %struct.PLpgSQL_execstate, ptr %184, i32 0, i32 27
  store ptr null, ptr %185, align 8
  %186 = load ptr, ptr @CurrentMemoryContext, align 8
  %187 = load ptr, ptr %6, align 8
  %188 = getelementptr inbounds nuw %struct.PLpgSQL_execstate, ptr %187, i32 0, i32 28
  store ptr %186, ptr %188, align 8
  %189 = load ptr, ptr %6, align 8
  %190 = getelementptr inbounds nuw %struct.PLpgSQL_execstate, ptr %189, i32 0, i32 29
  store ptr null, ptr %190, align 8
  %191 = load ptr, ptr %6, align 8
  %192 = getelementptr inbounds nuw %struct.PLpgSQL_execstate, ptr %191, i32 0, i32 30
  store i64 0, ptr %192, align 8
  %193 = load ptr, ptr %6, align 8
  %194 = getelementptr inbounds nuw %struct.PLpgSQL_execstate, ptr %193, i32 0, i32 31
  store ptr null, ptr %194, align 8
  %195 = load ptr, ptr %6, align 8
  %196 = getelementptr inbounds nuw %struct.PLpgSQL_execstate, ptr %195, i32 0, i32 32
  store ptr null, ptr %196, align 8
  %197 = load ptr, ptr %6, align 8
  %198 = getelementptr inbounds nuw %struct.PLpgSQL_execstate, ptr %197, i32 0, i32 33
  store ptr null, ptr %198, align 8
  %199 = load ptr, ptr %6, align 8
  %200 = getelementptr inbounds nuw %struct.PLpgSQL_execstate, ptr %199, i32 0, i32 34
  store ptr null, ptr %200, align 8
  %201 = load ptr, ptr %6, align 8
  %202 = getelementptr inbounds nuw %struct.PLpgSQL_execstate, ptr %201, i32 0, i32 35
  store ptr null, ptr %202, align 8
  %203 = load ptr, ptr %6, align 8
  call void @plpgsql_create_econtext(ptr noundef %203)
  %204 = load ptr, ptr @plpgsql_plugin_ptr, align 8
  %205 = load ptr, ptr %204, align 8
  %206 = icmp ne ptr %205, null
  br i1 %206, label %207, label %236

207:                                              ; preds = %181
  %208 = load ptr, ptr @plpgsql_plugin_ptr, align 8
  %209 = load ptr, ptr %208, align 8
  %210 = getelementptr inbounds nuw %struct.PLpgSQL_plugin, ptr %209, i32 0, i32 5
  store ptr @plpgsql_exec_error_callback, ptr %210, align 8
  %211 = load ptr, ptr @plpgsql_plugin_ptr, align 8
  %212 = load ptr, ptr %211, align 8
  %213 = getelementptr inbounds nuw %struct.PLpgSQL_plugin, ptr %212, i32 0, i32 6
  store ptr @exec_assign_expr, ptr %213, align 8
  %214 = load ptr, ptr @plpgsql_plugin_ptr, align 8
  %215 = load ptr, ptr %214, align 8
  %216 = getelementptr inbounds nuw %struct.PLpgSQL_plugin, ptr %215, i32 0, i32 7
  store ptr @exec_assign_value, ptr %216, align 8
  %217 = load ptr, ptr @plpgsql_plugin_ptr, align 8
  %218 = load ptr, ptr %217, align 8
  %219 = getelementptr inbounds nuw %struct.PLpgSQL_plugin, ptr %218, i32 0, i32 8
  store ptr @exec_eval_datum, ptr %219, align 8
  %220 = load ptr, ptr @plpgsql_plugin_ptr, align 8
  %221 = load ptr, ptr %220, align 8
  %222 = getelementptr inbounds nuw %struct.PLpgSQL_plugin, ptr %221, i32 0, i32 9
  store ptr @exec_cast_value, ptr %222, align 8
  %223 = load ptr, ptr @plpgsql_plugin_ptr, align 8
  %224 = load ptr, ptr %223, align 8
  %225 = getelementptr inbounds nuw %struct.PLpgSQL_plugin, ptr %224, i32 0, i32 0
  %226 = load ptr, ptr %225, align 8
  %227 = icmp ne ptr %226, null
  br i1 %227, label %228, label %235

228:                                              ; preds = %207
  %229 = load ptr, ptr @plpgsql_plugin_ptr, align 8
  %230 = load ptr, ptr %229, align 8
  %231 = getelementptr inbounds nuw %struct.PLpgSQL_plugin, ptr %230, i32 0, i32 0
  %232 = load ptr, ptr %231, align 8
  %233 = load ptr, ptr %6, align 8
  %234 = load ptr, ptr %7, align 8
  call void %232(ptr noundef %233, ptr noundef %234)
  br label %235

235:                                              ; preds = %228, %207
  br label %236

236:                                              ; preds = %235, %181
  call void @llvm.lifetime.end.p0(i64 96, ptr %11) #12
  ret void
}