; Function Attrs: nounwind uwtable
define internal fastcc void @plpgsql_estate_setup(ptr noundef nonnull %0, ptr noundef initializes((536, 544)) %1, ptr noundef %2, ptr noundef %3, ptr noundef %4) unnamed_addr #0 {
  %6 = alloca %struct.HASHCTL, align 8
  call void @llvm.lifetime.start.p0(i64 96, ptr nonnull %6) #12
  %7 = getelementptr inbounds nuw i8, ptr %1, i64 536
  store ptr %0, ptr %7, align 8
  store ptr %1, ptr %0, align 8
  %8 = getelementptr inbounds nuw i8, ptr %0, i64 8
  %9 = getelementptr inbounds nuw i8, ptr %0, i64 32
  tail call void @llvm.memset.p0.i64(ptr noundef nonnull align 8 dereferenceable(24) %8, i8 0, i64 24, i1 false)
  store i8 1, ptr %9, align 8
  %10 = getelementptr inbounds nuw i8, ptr %0, i64 36
  store i32 0, ptr %10, align 4
  %11 = getelementptr inbounds nuw i8, ptr %1, i64 48
  %12 = load i32, ptr %11, align 8
  %13 = getelementptr inbounds nuw i8, ptr %0, i64 40
  store i32 %12, ptr %13, align 8
  %14 = getelementptr inbounds nuw i8, ptr %1, i64 57
  %15 = load i8, ptr %14, align 1, !range !3, !noundef !4
  %16 = getelementptr inbounds nuw i8, ptr %0, i64 44
  store i8 %15, ptr %16, align 4
  %17 = getelementptr inbounds nuw i8, ptr %1, i64 59
  %18 = load i8, ptr %17, align 1, !range !3, !noundef !4
  %19 = getelementptr inbounds nuw i8, ptr %0, i64 45
  store i8 %18, ptr %19, align 1
  %20 = getelementptr inbounds nuw i8, ptr %1, i64 60
  %21 = load i8, ptr %20, align 4, !range !3, !noundef !4
  %22 = getelementptr inbounds nuw i8, ptr %0, i64 46
  store i8 %21, ptr %22, align 2
  %23 = getelementptr inbounds nuw i8, ptr %0, i64 47
  store i8 1, ptr %23, align 1
  %24 = getelementptr inbounds nuw i8, ptr %0, i64 48
  %.not = icmp eq ptr %2, null
  tail call void @llvm.memset.p0.i64(ptr noundef nonnull align 8 dereferenceable(32) %24, i8 0, i64 32, i1 false)
  br i1 %.not, label %31, label %25

25:                                               ; preds = %5
  %26 = getelementptr inbounds nuw i8, ptr %2, i64 8
  %27 = load ptr, ptr %26, align 8
  %28 = getelementptr inbounds nuw i8, ptr %27, i64 32
  %29 = load ptr, ptr %28, align 8
  %30 = load ptr, ptr @CurrentResourceOwner, align 8
  br label %31

31:                                               ; preds = %5, %25
  %.sink77 = phi ptr [ %29, %25 ], [ null, %5 ]
  %.sink = phi ptr [ %30, %25 ], [ null, %5 ]
  %32 = getelementptr inbounds nuw i8, ptr %0, i64 80
  store ptr %.sink77, ptr %32, align 8
  %33 = getelementptr inbounds nuw i8, ptr %0, i64 88
  store ptr %.sink, ptr %33, align 8
  %34 = getelementptr inbounds nuw i8, ptr %0, i64 96
  store ptr %2, ptr %34, align 8
  %35 = getelementptr inbounds nuw i8, ptr %1, i64 472
  %36 = load i32, ptr %35, align 8
  %37 = getelementptr inbounds nuw i8, ptr %0, i64 104
  store i32 %36, ptr %37, align 8
  %38 = getelementptr inbounds nuw i8, ptr %1, i64 500
  %39 = load i32, ptr %38, align 4
  %40 = getelementptr inbounds nuw i8, ptr %0, i64 108
  store i32 %39, ptr %40, align 4
  %41 = getelementptr inbounds nuw i8, ptr %0, i64 112
  store ptr null, ptr %41, align 8
  %42 = load ptr, ptr @CurrentMemoryContext, align 8
  %43 = getelementptr inbounds nuw i8, ptr %0, i64 120
  store ptr %42, ptr %43, align 8
  %44 = tail call ptr @makeParamList(i32 noundef 0) #12
  %45 = getelementptr inbounds nuw i8, ptr %0, i64 128
  store ptr %44, ptr %45, align 8
  store ptr @plpgsql_param_fetch, ptr %44, align 8
  %46 = load ptr, ptr %45, align 8
  %47 = getelementptr inbounds nuw i8, ptr %46, i64 8
  store ptr %0, ptr %47, align 8
  %48 = load ptr, ptr %45, align 8
  %49 = getelementptr inbounds nuw i8, ptr %48, i64 16
  store ptr @plpgsql_param_compile, ptr %49, align 8
  %50 = load ptr, ptr %45, align 8
  %51 = getelementptr inbounds nuw i8, ptr %50, i64 24
  store ptr null, ptr %51, align 8
  %52 = load ptr, ptr %45, align 8
  %53 = getelementptr inbounds nuw i8, ptr %52, i64 32
  store ptr @plpgsql_parser_setup, ptr %53, align 8
  %54 = load ptr, ptr %45, align 8
  %55 = getelementptr inbounds nuw i8, ptr %54, i64 40
  store ptr null, ptr %55, align 8
  %56 = load i32, ptr %40, align 4
  %57 = load ptr, ptr %45, align 8
  %58 = getelementptr inbounds nuw i8, ptr %57, i64 56
  store i32 %56, ptr %58, align 8
  %59 = load ptr, ptr @cast_expr_hash, align 8
  %60 = icmp eq ptr %59, null
  br i1 %60, label %61, label %65

61:                                               ; preds = %31
  %62 = getelementptr inbounds nuw i8, ptr %6, i64 32
  store i64 16, ptr %62, align 8
  %63 = getelementptr inbounds nuw i8, ptr %6, i64 40
  store i64 32, ptr %63, align 8
  %64 = call ptr @hash_create(ptr noundef nonnull @.str.134, i64 noundef 16, ptr noundef nonnull %6, i32 noundef 40) #12
  store ptr %64, ptr @cast_expr_hash, align 8
  br label %65

65:                                               ; preds = %61, %31
  %.not73 = icmp eq ptr %3, null
  br i1 %.not73, label %73, label %66

66:                                               ; preds = %65
  %67 = getelementptr inbounds nuw i8, ptr %0, i64 136
  store ptr %3, ptr %67, align 8
  %68 = getelementptr inbounds nuw i8, ptr %6, i64 32
  store i64 16, ptr %68, align 8
  %69 = getelementptr inbounds nuw i8, ptr %6, i64 40
  store i64 40, ptr %69, align 8
  %70 = load ptr, ptr @CurrentMemoryContext, align 8
  %71 = getelementptr inbounds nuw i8, ptr %6, i64 80
  store ptr %70, ptr %71, align 8
  %72 = call ptr @hash_create(ptr noundef nonnull @.str.135, i64 noundef 16, ptr noundef nonnull %6, i32 noundef 1064) #12
  br label %82

73:                                               ; preds = %65
  %74 = load ptr, ptr @shared_simple_eval_estate, align 8
  %75 = getelementptr inbounds nuw i8, ptr %0, i64 136
  store ptr %74, ptr %75, align 8
  %76 = load ptr, ptr @shared_cast_hash, align 8
  %77 = icmp eq ptr %76, null
  br i1 %77, label %78, label %82

78:                                               ; preds = %73
  %79 = getelementptr inbounds nuw i8, ptr %6, i64 32
  store i64 16, ptr %79, align 8
  %80 = getelementptr inbounds nuw i8, ptr %6, i64 40
  store i64 40, ptr %80, align 8
  %81 = call ptr @hash_create(ptr noundef nonnull @.str.136, i64 noundef 16, ptr noundef nonnull %6, i32 noundef 40) #12
  store ptr %81, ptr @shared_cast_hash, align 8
  br label %82

82:                                               ; preds = %73, %78, %66
  %.sink79 = phi ptr [ %72, %66 ], [ %81, %78 ], [ %76, %73 ]
  %83 = getelementptr inbounds nuw i8, ptr %0, i64 160
  store ptr %.sink79, ptr %83, align 8
  %.not74 = icmp eq ptr %4, null
  %84 = load ptr, ptr @shared_simple_eval_resowner, align 8
  %.sink78 = select i1 %.not74, ptr %84, ptr %4
  %85 = getelementptr inbounds nuw i8, ptr %0, i64 144
  store ptr %.sink78, ptr %85, align 8
  %86 = getelementptr inbounds nuw i8, ptr %0, i64 152
  store ptr null, ptr %86, align 8
  %87 = getelementptr inbounds nuw i8, ptr %0, i64 168
  store ptr null, ptr %87, align 8
  %88 = load ptr, ptr @CurrentMemoryContext, align 8
  %89 = getelementptr inbounds nuw i8, ptr %0, i64 176
  store ptr %88, ptr %89, align 8
  %90 = getelementptr inbounds nuw i8, ptr %0, i64 184
  call void @llvm.memset.p0.i64(ptr noundef nonnull align 8 dereferenceable(56) %90, i8 0, i64 56, i1 false)
  call fastcc void @plpgsql_create_econtext(ptr noundef %0)
  %91 = load ptr, ptr @plpgsql_plugin_ptr, align 8
  %92 = load ptr, ptr %91, align 8
  %.not75 = icmp eq ptr %92, null
  br i1 %.not75, label %106, label %93

93:                                               ; preds = %82
  %94 = getelementptr inbounds nuw i8, ptr %92, i64 40
  store ptr @plpgsql_exec_error_callback, ptr %94, align 8
  %95 = load ptr, ptr %91, align 8
  %96 = getelementptr inbounds nuw i8, ptr %95, i64 48
  store ptr @exec_assign_expr, ptr %96, align 8
  %97 = load ptr, ptr %91, align 8
  %98 = getelementptr inbounds nuw i8, ptr %97, i64 56
  store ptr @exec_assign_value, ptr %98, align 8
  %99 = load ptr, ptr %91, align 8
  %100 = getelementptr inbounds nuw i8, ptr %99, i64 64
  store ptr @exec_eval_datum, ptr %100, align 8
  %101 = load ptr, ptr %91, align 8
  %102 = getelementptr inbounds nuw i8, ptr %101, i64 72
  store ptr @exec_cast_value, ptr %102, align 8
  %103 = load ptr, ptr %91, align 8
  %104 = load ptr, ptr %103, align 8
  %.not76 = icmp eq ptr %104, null
  br i1 %.not76, label %106, label %105

105:                                              ; preds = %93
  call void %104(ptr noundef nonnull %0, ptr noundef nonnull %1) #12
  br label %106

106:                                              ; preds = %93, %105, %82
  call void @llvm.lifetime.end.p0(i64 96, ptr nonnull %6) #12
  ret void
}